; ModuleID = 'source-C-CXX/54/1108.c'
source_filename = "source-C-CXX/54/1108.c"
target datalayout = "e-m:e-p270:32:32-p271:32:32-p272:64:64-i64:64-f80:128-n8:16:32:64-S128"
target triple = "x86_64-pc-linux-gnu"

%struct._IO_FILE = type { i32, i8*, i8*, i8*, i8*, i8*, i8*, i8*, i8*, i8*, i8*, i8*, %struct._IO_marker*, %struct._IO_FILE*, i32, i32, i64, i16, i8, [1 x i8], i8*, i64, %struct._IO_codecvt*, %struct._IO_wide_data*, %struct._IO_FILE*, i8*, i64, i32, [20 x i8] }
%struct._IO_marker = type opaque
%struct._IO_codecvt = type opaque
%struct._IO_wide_data = type opaque

@.str = private unnamed_addr constant [9 x i8] c"%d %s %d\00", align 1
@stdin = external local_unnamed_addr global %struct._IO_FILE*, align 8

; Function Attrs: nofree nounwind sspstrong uwtable
define dso_local i32 @main() local_unnamed_addr #0 {
  %1 = alloca [100 x i8], align 16
  %2 = alloca [100 x i8], align 16
  %3 = alloca i32, align 4
  %4 = alloca i32, align 4
  %5 = getelementptr inbounds [100 x i8], [100 x i8]* %1, i64 0, i64 0
  call void @llvm.lifetime.start.p0i8(i64 100, i8* nonnull %5) #5
  %6 = getelementptr inbounds [100 x i8], [100 x i8]* %2, i64 0, i64 0
  call void @llvm.lifetime.start.p0i8(i64 100, i8* nonnull %6) #5
  %7 = bitcast i32* %3 to i8*
  call void @llvm.lifetime.start.p0i8(i64 4, i8* nonnull %7) #5
  %8 = bitcast i32* %4 to i8*
  call void @llvm.lifetime.start.p0i8(i64 4, i8* nonnull %8) #5
  %9 = call i32 (i8*, ...) @__isoc99_scanf(i8* getelementptr inbounds ([9 x i8], [9 x i8]* @.str, i64 0, i64 0), i32* nonnull %3, i8* nonnull %5, i32* nonnull %4)
  %10 = call i64 @strlen(i8* noundef nonnull %5) #6
  %11 = trunc i64 %10 to i32
  %12 = load i32, i32* %3, align 4
  %13 = icmp sgt i32 %11, 0
  br i1 %13, label %14, label %37

14:                                               ; preds = %0
  %15 = and i64 %10, 4294967295
  %16 = and i64 %10, 1
  %17 = icmp eq i64 %15, 1
  br i1 %17, label %20, label %18

18:                                               ; preds = %14
  %19 = sub nsw i64 %15, %16
  br label %40

20:                                               ; preds = %40, %14
  %21 = phi i32 [ undef, %14 ], [ %66, %40 ]
  %22 = phi i64 [ 0, %14 ], [ %67, %40 ]
  %23 = phi i32 [ 0, %14 ], [ %66, %40 ]
  %24 = icmp eq i64 %16, 0
  br i1 %24, label %37, label %25

25:                                               ; preds = %20
  %26 = getelementptr inbounds [100 x i8], [100 x i8]* %1, i64 0, i64 %22
  %27 = load i8, i8* %26, align 1, !tbaa !5
  %28 = mul nsw i32 %12, %23
  %29 = add i8 %27, -65
  %30 = icmp ult i8 %29, 32
  %31 = icmp sgt i8 %27, 96
  %32 = select i1 %31, i32 -87, i32 -48
  %33 = select i1 %30, i32 -55, i32 %32
  %34 = sext i8 %27 to i32
  %35 = add nsw i32 %33, %34
  %36 = add nsw i32 %28, %35
  br label %37

37:                                               ; preds = %25, %20, %0
  %38 = phi i32 [ 0, %0 ], [ %21, %20 ], [ %36, %25 ]
  %39 = load i32, i32* %4, align 4, !tbaa !8
  br label %70

40:                                               ; preds = %40, %18
  %41 = phi i64 [ 0, %18 ], [ %67, %40 ]
  %42 = phi i32 [ 0, %18 ], [ %66, %40 ]
  %43 = phi i64 [ %19, %18 ], [ %68, %40 ]
  %44 = getelementptr inbounds [100 x i8], [100 x i8]* %1, i64 0, i64 %41
  %45 = load i8, i8* %44, align 2, !tbaa !5
  %46 = sext i8 %45 to i32
  %47 = add i8 %45, -65
  %48 = icmp ult i8 %47, 32
  %49 = icmp sgt i8 %45, 96
  %50 = select i1 %49, i32 -87, i32 -48
  %51 = select i1 %48, i32 -55, i32 %50
  %52 = add nsw i32 %51, %46
  %53 = mul nsw i32 %12, %42
  %54 = add nsw i32 %53, %52
  %55 = or i64 %41, 1
  %56 = getelementptr inbounds [100 x i8], [100 x i8]* %1, i64 0, i64 %55
  %57 = load i8, i8* %56, align 1, !tbaa !5
  %58 = sext i8 %57 to i32
  %59 = add i8 %57, -65
  %60 = icmp ult i8 %59, 32
  %61 = icmp sgt i8 %57, 96
  %62 = select i1 %61, i32 -87, i32 -48
  %63 = select i1 %60, i32 -55, i32 %62
  %64 = add nsw i32 %63, %58
  %65 = mul nsw i32 %12, %54
  %66 = add nsw i32 %65, %64
  %67 = add nuw nsw i64 %41, 2
  %68 = add i64 %43, -2
  %69 = icmp eq i64 %68, 0
  br i1 %69, label %20, label %40, !llvm.loop !10

70:                                               ; preds = %70, %37
  %71 = phi i64 [ %81, %70 ], [ 0, %37 ]
  %72 = phi i32 [ %76, %70 ], [ %38, %37 ]
  %73 = srem i32 %72, %39
  %74 = trunc i32 %73 to i8
  %75 = getelementptr inbounds [100 x i8], [100 x i8]* %2, i64 0, i64 %71
  %76 = sdiv i32 %72, %39
  %77 = icmp sgt i8 %74, 9
  %78 = select i1 %77, i8 55, i8 48
  %79 = add i8 %78, %74
  store i8 %79, i8* %75, align 1, !tbaa !5
  %80 = icmp eq i32 %76, 0
  %81 = add nuw i64 %71, 1
  br i1 %80, label %82, label %70

82:                                               ; preds = %70
  %83 = and i64 %71, 4294967295
  br label %84

84:                                               ; preds = %82, %84
  %85 = phi i64 [ %83, %82 ], [ %92, %84 ]
  %86 = getelementptr inbounds [100 x i8], [100 x i8]* %2, i64 0, i64 %85
  %87 = load i8, i8* %86, align 1, !tbaa !5
  %88 = sext i8 %87 to i32
  %89 = call i32 @putchar(i32 %88)
  %90 = trunc i64 %85 to i32
  %91 = icmp sgt i32 %90, 0
  %92 = add nsw i64 %85, -1
  br i1 %91, label %84, label %93, !llvm.loop !12

93:                                               ; preds = %84
  %94 = call i32 @putchar(i32 10)
  %95 = load %struct._IO_FILE*, %struct._IO_FILE** @stdin, align 8, !tbaa !13
  %96 = call i32 @getc(%struct._IO_FILE* %95) #5
  %97 = load %struct._IO_FILE*, %struct._IO_FILE** @stdin, align 8, !tbaa !13
  %98 = call i32 @getc(%struct._IO_FILE* %97) #5
  %99 = load %struct._IO_FILE*, %struct._IO_FILE** @stdin, align 8, !tbaa !13
  %100 = call i32 @getc(%struct._IO_FILE* %99) #5
  %101 = load %struct._IO_FILE*, %struct._IO_FILE** @stdin, align 8, !tbaa !13
  %102 = call i32 @getc(%struct._IO_FILE* %101) #5
  call void @llvm.lifetime.end.p0i8(i64 4, i8* nonnull %8) #5
  call void @llvm.lifetime.end.p0i8(i64 4, i8* nonnull %7) #5
  call void @llvm.lifetime.end.p0i8(i64 100, i8* nonnull %6) #5
  call void @llvm.lifetime.end.p0i8(i64 100, i8* nonnull %5) #5
  ret i32 0
}

; Function Attrs: argmemonly mustprogress nofree nosync nounwind willreturn
declare void @llvm.lifetime.start.p0i8(i64 immarg, i8* nocapture) #1

; Function Attrs: nofree nounwind
declare noundef i32 @__isoc99_scanf(i8* nocapture noundef readonly, ...) local_unnamed_addr #2

; Function Attrs: argmemonly mustprogress nofree nounwind readonly willreturn
declare i64 @strlen(i8* nocapture) local_unnamed_addr #3

; Function Attrs: argmemonly mustprogress nofree nosync nounwind willreturn
declare void @llvm.lifetime.end.p0i8(i64 immarg, i8* nocapture) #1

; Function Attrs: nofree nounwind
declare noundef i32 @getc(%struct._IO_FILE* nocapture noundef) local_unnamed_addr #2

; Function Attrs: nofree nounwind
declare noundef i32 @putchar(i32 noundef) local_unnamed_addr #4


!llvm.module.flags = !{!0, !1, !2, !3}
!llvm.ident = !{!4}

!0 = !{i32 1, !"wchar_size", i32 4}
!1 = !{i32 7, !"PIC Level", i32 2}
!2 = !{i32 7, !"PIE Level", i32 2}
!3 = !{i32 7, !"uwtable", i32 1}
!4 = !{!"clang version 13.0.0"}
!5 = !{!6, !6, i64 0}
!6 = !{!"omnipotent char", !7, i64 0}
!7 = !{!"Simple C/C++ TBAA"}
!8 = !{!9, !9, i64 0}
!9 = !{!"int", !6, i64 0}
!10 = distinct !{!10, !11}
!11 = !{!"llvm.loop.mustprogress"}
!12 = distinct !{!12, !11}
!13 = !{!14, !14, i64 0}
!14 = !{!"any pointer", !6, i64 0}
